target datalayout = "e-m:e-p270:32:32-p271:32:32-p272:64:64-i64:64-i128:128-f80:128-n8:16:32:64-S128"
target triple = "x86_64-unknown-linux-gnu"

%"class.icu_75::numparse::impl::NumberParseMatcher" = type { ptr }
%"class.icu_75::numparse::impl::AffixMatcher" = type <{ %"class.icu_75::numparse::impl::NumberParseMatcher", ptr, ptr, i32, [4 x i8] }>

@_ZTVN6icu_758numparse4impl18NumberParseMatcherE = external unnamed_addr constant { [9 x ptr] }, align 8

; Function Attrs: mustprogress nounwind uwtable
define linkonce_odr void @_ZN6icu_758numparse4impl18NumberParseMatcherC2Ev(ptr noundef nonnull align 8 dereferenceable(8) %this) unnamed_addr #0 comdat align 2 {
entry:
  %this.addr = alloca ptr, align 8
  store ptr %this, ptr %this.addr, align 8
  %this1 = load ptr, ptr %this.addr, align 8
  store ptr getelementptr inbounds ({ [9 x ptr] }, ptr @_ZTVN6icu_758numparse4impl18NumberParseMatcherE, i32 0, i32 0, i32 2), ptr %this1, align 8
  ret void
}

; Function Attrs: mustprogress nounwind uwtable
define void @_ZN6icu_758numparse4impl12AffixMatcherC2EPNS1_19AffixPatternMatcherES4_i(ptr noundef nonnull align 8 dereferenceable(28) %this, ptr noundef %prefix, ptr noundef %suffix, i32 noundef %flags) unnamed_addr #0 align 2 {
entry:
  %this.addr = alloca ptr, align 8
  %prefix.addr = alloca ptr, align 8
  %suffix.addr = alloca ptr, align 8
  %flags.addr = alloca i32, align 4
  store ptr %this, ptr %this.addr, align 8
  store ptr %prefix, ptr %prefix.addr, align 8
  store ptr %suffix, ptr %suffix.addr, align 8
  store i32 %flags, ptr %flags.addr, align 4
  %this1 = load ptr, ptr %this.addr, align 8
  call void @_ZN6icu_758numparse4impl18NumberParseMatcherC2Ev(ptr noundef nonnull align 8 dereferenceable(8) %this1) #13
  store ptr getelementptr inbounds ({ [9 x ptr] }, ptr @_ZTVN6icu_758numparse4impl12AffixMatcherE, i32 0, i32 0, i32 2), ptr %this1, align 8
  %fPrefix = getelementptr inbounds %"class.icu_75::numparse::impl::AffixMatcher", ptr %this1, i32 0, i32 1
  %0 = load ptr, ptr %prefix.addr, align 8
  store ptr %0, ptr %fPrefix, align 8
  %fSuffix = getelementptr inbounds %"class.icu_75::numparse::impl::AffixMatcher", ptr %this1, i32 0, i32 2
  %1 = load ptr, ptr %suffix.addr, align 8
  store ptr %1, ptr %fSuffix, align 8
  %fFlags = getelementptr inbounds %"class.icu_75::numparse::impl::AffixMatcher", ptr %this1, i32 0, i32 3
  %2 = load i32, ptr %flags.addr, align 4
  store i32 %2, ptr %fFlags, align 8
  ret void
}