; Function Attrs: mustprogress nofree norecurse nosync nounwind willreturn memory(argmem: write) uwtable
define void @_ZN6icu_758numparse4impl12AffixMatcherC2EPNS1_19AffixPatternMatcherES4_i(ptr nocapture noundef nonnull writeonly align 8 dereferenceable(28) %this, ptr noundef %prefix, ptr noundef %suffix, i32 noundef %flags) unnamed_addr #6 align 2 {
entry:
  store ptr getelementptr inbounds ({ [9 x ptr] }, ptr @_ZTVN6icu_758numparse4impl12AffixMatcherE, i64 0, i32 0, i64 2), ptr %this, align 8
  %fPrefix = getelementptr inbounds i8, ptr %this, i64 8
  store ptr %prefix, ptr %fPrefix, align 8
  %fSuffix = getelementptr inbounds i8, ptr %this, i64 16
  store ptr %suffix, ptr %fSuffix, align 8
  %fFlags = getelementptr inbounds i8, ptr %this, i64 24
  store i32 %flags, ptr %fFlags, align 8
  ret void
}